target datalayout = "e-m:e-p270:32:32-p271:32:32-p272:64:64-i64:64-i128:128-f80:128-n8:16:32:64-S128"
target triple = "x86_64-unknown-linux-gnu"

%"class.std::__cxx11::basic_string" = type { %"struct.std::__cxx11::basic_string<char>::_Alloc_hider", i64, %union.anon }
%"struct.std::__cxx11::basic_string<char>::_Alloc_hider" = type { ptr }
%union.anon = type { i64, [8 x i8] }
%"class.std::__shared_count" = type { ptr }
%"class.std::__shared_ptr.22" = type { ptr, %"class.std::__shared_count" }
%"class.OpenColorIO_v2_4dev::XmlReaderElement" = type { ptr, %"class.std::__cxx11::basic_string", i32, %"class.std::__cxx11::basic_string" }

; Function Attrs: mustprogress nounwind uwtable
define linkonce_odr hidden noundef ptr @_ZNKSt12__shared_ptrIN19OpenColorIO_v2_4dev16XmlReaderElementELN9__gnu_cxx12_Lock_policyE2EE3getEv(ptr noundef nonnull align 8 dereferenceable(16) %this) #4 comdat align 2 {
entry:
  %this.addr = alloca ptr, align 8
  store ptr %this, ptr %this.addr, align 8
  %this1 = load ptr, ptr %this.addr, align 8
  %_M_ptr = getelementptr inbounds %"class.std::__shared_ptr.22", ptr %this1, i32 0, i32 0
  %0 = load ptr, ptr %_M_ptr, align 8
  ret ptr %0
}

; Function Attrs: mustprogress nounwind uwtable
define linkonce_odr hidden noundef ptr @_ZNKSt19__shared_ptr_accessIN19OpenColorIO_v2_4dev16XmlReaderElementELN9__gnu_cxx12_Lock_policyE2ELb0ELb0EE6_M_getEv(ptr noundef nonnull align 1 dereferenceable(1) %this) #4 comdat align 2 {
entry:
  %this.addr = alloca ptr, align 8
  store ptr %this, ptr %this.addr, align 8
  %this1 = load ptr, ptr %this.addr, align 8
  %call = call noundef ptr @_ZNKSt12__shared_ptrIN19OpenColorIO_v2_4dev16XmlReaderElementELN9__gnu_cxx12_Lock_policyE2EE3getEv(ptr noundef nonnull align 8 dereferenceable(16) %this1) #3
  ret ptr %call
}

; Function Attrs: mustprogress nounwind uwtable
define linkonce_odr hidden noundef nonnull align 8 dereferenceable(32) ptr @_ZNK19OpenColorIO_v2_4dev16XmlReaderElement7getNameB5cxx11Ev(ptr noundef nonnull align 8 dereferenceable(80) %this) #4 comdat align 2 {
entry:
  %this.addr = alloca ptr, align 8
  store ptr %this, ptr %this.addr, align 8
  %this1 = load ptr, ptr %this.addr, align 8
  %m_name = getelementptr inbounds %"class.OpenColorIO_v2_4dev::XmlReaderElement", ptr %this1, i32 0, i32 1
  ret ptr %m_name
}

; Function Attrs: mustprogress nounwind uwtable
define linkonce_odr hidden noundef ptr @_ZNKSt19__shared_ptr_accessIN19OpenColorIO_v2_4dev16XmlReaderElementELN9__gnu_cxx12_Lock_policyE2ELb0ELb0EEptEv(ptr noundef nonnull align 1 dereferenceable(1) %this) #4 comdat align 2 {
entry:
  %this.addr = alloca ptr, align 8
  store ptr %this, ptr %this.addr, align 8
  %this1 = load ptr, ptr %this.addr, align 8
  %call = call noundef ptr @_ZNKSt19__shared_ptr_accessIN19OpenColorIO_v2_4dev16XmlReaderElementELN9__gnu_cxx12_Lock_policyE2ELb0ELb0EE6_M_getEv(ptr noundef nonnull align 1 dereferenceable(1) %this1) #3
  ret ptr %call
}

; Function Attrs: mustprogress nounwind uwtable
define linkonce_odr hidden noundef zeroext i1 @_ZNKSt12__shared_ptrIN19OpenColorIO_v2_4dev16XmlReaderElementELN9__gnu_cxx12_Lock_policyE2EEcvbEv(ptr noundef nonnull align 8 dereferenceable(16) %this) #4 comdat align 2 {
entry:
  %this.addr = alloca ptr, align 8
  store ptr %this, ptr %this.addr, align 8
  %this1 = load ptr, ptr %this.addr, align 8
  %_M_ptr = getelementptr inbounds %"class.std::__shared_ptr.22", ptr %this1, i32 0, i32 0
  %0 = load ptr, ptr %_M_ptr, align 8
  %cmp = icmp ne ptr %0, null
  ret i1 %cmp
}

; Function Attrs: mustprogress uwtable
define internal noundef zeroext i1 @_ZN19OpenColorIO_v2_4dev12_GLOBAL__N_115XMLParserHelper16SupportedElementEPKcRSt10shared_ptrINS_16XmlReaderElementEES3_S3_Rb(ptr noundef %name, ptr noundef nonnull align 8 dereferenceable(16) %parent, ptr noundef %tag, ptr noundef %parentName, ptr noundef nonnull align 1 dereferenceable(1) %recognizedName) #5 align 2 {
entry:
  %retval = alloca i1, align 1
  %name.addr = alloca ptr, align 8
  %parent.addr = alloca ptr, align 8
  %tag.addr = alloca ptr, align 8
  %parentName.addr = alloca ptr, align 8
  %recognizedName.addr = alloca ptr, align 8
  store ptr %name, ptr %name.addr, align 8
  store ptr %parent, ptr %parent.addr, align 8
  store ptr %tag, ptr %tag.addr, align 8
  store ptr %parentName, ptr %parentName.addr, align 8
  store ptr %recognizedName, ptr %recognizedName.addr, align 8
  %0 = load ptr, ptr %name.addr, align 8
  %tobool = icmp ne ptr %0, null
  br i1 %tobool, label %land.lhs.true, label %if.end22

land.lhs.true:                                    ; preds = %entry
  %1 = load ptr, ptr %name.addr, align 8
  %2 = load i8, ptr %1, align 1
  %tobool1 = icmp ne i8 %2, 0
  br i1 %tobool1, label %land.lhs.true2, label %if.end22

land.lhs.true2:                                   ; preds = %land.lhs.true
  %3 = load ptr, ptr %tag.addr, align 8
  %tobool3 = icmp ne ptr %3, null
  br i1 %tobool3, label %land.lhs.true4, label %if.end22

land.lhs.true4:                                   ; preds = %land.lhs.true2
  %4 = load ptr, ptr %tag.addr, align 8
  %5 = load i8, ptr %4, align 1
  %tobool5 = icmp ne i8 %5, 0
  br i1 %tobool5, label %if.then, label %if.end22

if.then:                                          ; preds = %land.lhs.true4
  %6 = load ptr, ptr %name.addr, align 8
  %7 = load ptr, ptr %tag.addr, align 8
  %call = call noundef i32 @_ZN19OpenColorIO_v2_4dev8Platform10StrcasecmpEPKcS2_(ptr noundef %6, ptr noundef %7)
  %cmp = icmp eq i32 0, %call
  br i1 %cmp, label %if.then6, label %if.end21

if.then6:                                         ; preds = %if.then
  %8 = load ptr, ptr %recognizedName.addr, align 8
  %9 = load i8, ptr %8, align 1
  %tobool7 = trunc i8 %9 to i1
  %conv = zext i1 %tobool7 to i32
  %or = or i32 %conv, 1
  %tobool8 = icmp ne i32 %or, 0
  %frombool = zext i1 %tobool8 to i8
  store i8 %frombool, ptr %8, align 1
  %10 = load ptr, ptr %parentName.addr, align 8
  %tobool9 = icmp ne ptr %10, null
  br i1 %tobool9, label %lor.lhs.false, label %if.then20

lor.lhs.false:                                    ; preds = %if.then6
  %11 = load ptr, ptr %parentName.addr, align 8
  %call10 = call i64 @strlen(ptr noundef %11) #13
  %tobool11 = icmp ne i64 %call10, 0
  br i1 %tobool11, label %lor.lhs.false12, label %if.then20

lor.lhs.false12:                                  ; preds = %lor.lhs.false
  %12 = load ptr, ptr %parent.addr, align 8
  %call13 = call noundef zeroext i1 @_ZNKSt12__shared_ptrIN19OpenColorIO_v2_4dev16XmlReaderElementELN9__gnu_cxx12_Lock_policyE2EEcvbEv(ptr noundef nonnull align 8 dereferenceable(16) %12) #3
  br i1 %call13, label %land.lhs.true14, label %if.end

land.lhs.true14:                                  ; preds = %lor.lhs.false12
  %13 = load ptr, ptr %parent.addr, align 8
  %call15 = call noundef ptr @_ZNKSt19__shared_ptr_accessIN19OpenColorIO_v2_4dev16XmlReaderElementELN9__gnu_cxx12_Lock_policyE2ELb0ELb0EEptEv(ptr noundef nonnull align 1 dereferenceable(1) %13) #3
  %call16 = call noundef nonnull align 8 dereferenceable(32) ptr @_ZNK19OpenColorIO_v2_4dev16XmlReaderElement7getNameB5cxx11Ev(ptr noundef nonnull align 8 dereferenceable(80) %call15)
  %call17 = call noundef ptr @_ZNKSt7__cxx1112basic_stringIcSt11char_traitsIcESaIcEE5c_strEv(ptr noundef nonnull align 8 dereferenceable(32) %call16) #3
  %14 = load ptr, ptr %parentName.addr, align 8
  %call18 = call noundef i32 @_ZN19OpenColorIO_v2_4dev8Platform10StrcasecmpEPKcS2_(ptr noundef %call17, ptr noundef %14)
  %cmp19 = icmp eq i32 0, %call18
  br i1 %cmp19, label %if.then20, label %if.end

if.then20:                                        ; preds = %land.lhs.true14, %lor.lhs.false, %if.then6
  store i1 true, ptr %retval, align 1
  br label %return

if.end:                                           ; preds = %land.lhs.true14, %lor.lhs.false12
  br label %if.end21

if.end21:                                         ; preds = %if.end, %if.then
  br label %if.end22

if.end22:                                         ; preds = %if.end21, %land.lhs.true4, %land.lhs.true2, %land.lhs.true, %entry
  store i1 false, ptr %retval, align 1
  br label %return

return:                                           ; preds = %if.end22, %if.then20
  %15 = load i1, ptr %retval, align 1
  ret i1 %15
}