; Function Attrs: mustprogress uwtable
define internal fastcc noundef zeroext i1 @_ZN19OpenColorIO_v2_4dev12_GLOBAL__N_115XMLParserHelper16SupportedElementEPKcRSt10shared_ptrINS_16XmlReaderElementEES3_S3_Rb(ptr noundef %name, ptr nocapture noundef nonnull readonly align 8 dereferenceable(16) %parent, ptr noundef %tag, ptr noundef %parentName, ptr nocapture noundef nonnull writeonly align 1 dereferenceable(1) %recognizedName) unnamed_addr #4 align 2 {
entry:
  %tobool.not = icmp eq ptr %name, null
  br i1 %tobool.not, label %if.end22, label %land.lhs.true

land.lhs.true:                                    ; preds = %entry
  %0 = load i8, ptr %name, align 1
  %tobool1 = icmp ne i8 %0, 0
  %tobool3 = icmp ne ptr %tag, null
  %or.cond = and i1 %tobool3, %tobool1
  br i1 %or.cond, label %land.lhs.true4, label %if.end22

land.lhs.true4:                                   ; preds = %land.lhs.true
  %1 = load i8, ptr %tag, align 1
  %tobool5.not = icmp eq i8 %1, 0
  br i1 %tobool5.not, label %if.end22, label %if.then

if.then:                                          ; preds = %land.lhs.true4
  %call = tail call noundef i32 @_ZN19OpenColorIO_v2_4dev8Platform10StrcasecmpEPKcS2_(ptr noundef nonnull %name, ptr noundef nonnull %tag)
  %cmp = icmp eq i32 %call, 0
  br i1 %cmp, label %if.then6, label %if.end22

if.then6:                                         ; preds = %if.then
  store i8 1, ptr %recognizedName, align 1
  %tobool9.not = icmp eq ptr %parentName, null
  br i1 %tobool9.not, label %return, label %lor.lhs.false

lor.lhs.false:                                    ; preds = %if.then6
  %char0 = load i8, ptr %parentName, align 1
  %tobool11.not = icmp eq i8 %char0, 0
  br i1 %tobool11.not, label %return, label %lor.lhs.false12

lor.lhs.false12:                                  ; preds = %lor.lhs.false
  %2 = load ptr, ptr %parent, align 8
  %cmp.i.not = icmp eq ptr %2, null
  br i1 %cmp.i.not, label %if.end22, label %land.lhs.true14

land.lhs.true14:                                  ; preds = %lor.lhs.false12
  %m_name.i = getelementptr inbounds i8, ptr %2, i64 8
  %call17 = tail call noundef ptr @_ZNKSt7__cxx1112basic_stringIcSt11char_traitsIcESaIcEE5c_strEv(ptr noundef nonnull align 8 dereferenceable(32) %m_name.i) #20
  %call18 = tail call noundef i32 @_ZN19OpenColorIO_v2_4dev8Platform10StrcasecmpEPKcS2_(ptr noundef %call17, ptr noundef nonnull %parentName)
  %cmp19 = icmp eq i32 %call18, 0
  br i1 %cmp19, label %return, label %if.end22

if.end22:                                         ; preds = %if.then, %land.lhs.true14, %lor.lhs.false12, %land.lhs.true4, %land.lhs.true, %entry
  br label %return

return:                                           ; preds = %if.then6, %lor.lhs.false, %land.lhs.true14, %if.end22
  %retval.0 = phi i1 [ false, %if.end22 ], [ true, %land.lhs.true14 ], [ true, %lor.lhs.false ], [ true, %if.then6 ]
  ret i1 %retval.0
}